; Function Attrs: nounwind uwtable
define ptr @l_Lean_Elab_Tactic_BVDecide_Frontend_runExternal___boxed(ptr noundef %0, ptr noundef %1, ptr noundef %2, ptr noundef %3, ptr noundef %4, ptr noundef %5, ptr noundef %6, ptr noundef %7, ptr noundef %8) local_unnamed_addr #0 {
  %10 = ptrtoint ptr %3 to i64
  %11 = and i64 %10, 1
  %.not = icmp eq i64 %11, 0
  br i1 %.not, label %12, label %lean_dec.exit13

12:                                               ; preds = %9
  %13 = load i32, ptr %3, align 4, !tbaa !8
  %14 = icmp sgt i32 %13, 1
  br i1 %14, label %15, label %17, !prof !11

15:                                               ; preds = %12
  %16 = add nsw i32 %13, -1
  store i32 %16, ptr %3, align 4, !tbaa !8
  br label %lean_dec.exit13

17:                                               ; preds = %12
  %.not.i = icmp eq i32 %13, 0
  br i1 %.not.i, label %lean_dec.exit13, label %18

18:                                               ; preds = %17
  tail call void @lean_dec_ref_cold(ptr noundef nonnull %3) #4
  br label %lean_dec.exit13

lean_dec.exit13:                                  ; preds = %18, %17, %15, %9
  %19 = ptrtoint ptr %5 to i64
  %20 = and i64 %19, 1
  %.not16 = icmp eq i64 %20, 0
  br i1 %.not16, label %21, label %lean_dec.exit

21:                                               ; preds = %lean_dec.exit13
  %22 = load i32, ptr %5, align 4, !tbaa !8
  %23 = icmp sgt i32 %22, 1
  br i1 %23, label %24, label %26, !prof !11

24:                                               ; preds = %21
  %25 = add nsw i32 %22, -1
  store i32 %25, ptr %5, align 4, !tbaa !8
  br label %lean_dec.exit

26:                                               ; preds = %21
  %.not.i14 = icmp eq i32 %22, 0
  br i1 %.not.i14, label %lean_dec.exit, label %27

27:                                               ; preds = %26
  tail call void @lean_dec_ref_cold(ptr noundef nonnull %5) #4
  br label %lean_dec.exit

lean_dec.exit:                                    ; preds = %27, %26, %24, %lean_dec.exit13
  tail call void @lean_inc_heartbeat() #4
  %28 = tail call noalias ptr @mi_malloc_small(i64 noundef 72) #4
  %29 = icmp eq ptr %28, null
  br i1 %29, label %30, label %l_Lean_Elab_Tactic_BVDecide_Frontend_runExternal.exit

30:                                               ; preds = %lean_dec.exit
  tail call void @lean_internal_panic_out_of_memory() #5
  unreachable

l_Lean_Elab_Tactic_BVDecide_Frontend_runExternal.exit: ; preds = %lean_dec.exit
  %31 = and i64 %10, 510
  %32 = or disjoint i64 %31, 1
  %33 = inttoptr i64 %32 to ptr
  %34 = and i64 %19, 510
  %35 = or disjoint i64 %34, 1
  %36 = inttoptr i64 %35 to ptr
  %37 = getelementptr inbounds nuw i8, ptr %28, i64 4
  store i32 1, ptr %28, align 4, !tbaa !8
  store i32 -184549304, ptr %37, align 4
  %38 = getelementptr inbounds nuw i8, ptr %28, i64 8
  store ptr @l_Lean_Elab_Tactic_BVDecide_Frontend_runExternal___lambda__7___boxed, ptr %38, align 8, !tbaa !4
  %39 = getelementptr inbounds nuw i8, ptr %28, i64 16
  store i16 11, ptr %39, align 8, !tbaa !19
  %40 = getelementptr inbounds nuw i8, ptr %28, i64 18
  store i16 6, ptr %40, align 2, !tbaa !19
  %41 = getelementptr inbounds nuw i8, ptr %28, i64 24
  store ptr %0, ptr %41, align 8, !tbaa !4
  %42 = getelementptr inbounds nuw i8, ptr %28, i64 32
  store ptr %1, ptr %42, align 8, !tbaa !4
  %43 = getelementptr inbounds nuw i8, ptr %28, i64 40
  store ptr %2, ptr %43, align 8, !tbaa !4
  %44 = getelementptr inbounds nuw i8, ptr %28, i64 48
  store ptr %4, ptr %44, align 8, !tbaa !4
  %45 = getelementptr inbounds nuw i8, ptr %28, i64 56
  store ptr %36, ptr %45, align 8, !tbaa !4
  %46 = getelementptr inbounds nuw i8, ptr %28, i64 64
  store ptr %33, ptr %46, align 8, !tbaa !4
  %47 = tail call ptr @l_IO_FS_withTempFile___at_Lean_Elab_Tactic_BVDecide_Frontend_runExternal___spec__5(ptr noundef nonnull %28, ptr noundef %6, ptr noundef %7, ptr noundef %8)
  ret ptr %47
}